target datalayout = "e-m:e-p270:32:32-p271:32:32-p272:64:64-i64:64-i128:128-f80:128-n8:16:32:64-S128"
target triple = "x86_64-pc-linux-gnu"

%struct.AVFilterPad = type { ptr, i32, i32, %union.anon, ptr, ptr, ptr }
%union.anon = type { ptr }
%struct.AVFilterContext = type { ptr, ptr, ptr, ptr, ptr, i32, ptr, ptr, i32, ptr, ptr, i32, i32, ptr, ptr, ptr, ptr, i32, ptr, i32, i32 }
%struct.MixContext = type { ptr, ptr, i32, i32, i32, float, ptr, i32, i32, i32, i32, ptr, ptr, ptr, ptr, float, ptr, i64, ptr }

@.str.23 = private unnamed_addr constant [8 x i8] c"input%d\00", align 1

; Function Attrs: nounwind uwtable
define internal void @parse_weights(ptr noundef %0) #1 {
  %2 = alloca ptr, align 8
  %3 = alloca ptr, align 8
  %4 = alloca float, align 4
  %5 = alloca ptr, align 8
  %6 = alloca i32, align 4
  store ptr %0, ptr %2, align 8, !tbaa !4
  call void @llvm.lifetime.start.p0(i64 8, ptr %3) #9
  %7 = load ptr, ptr %2, align 8, !tbaa !4
  %8 = getelementptr inbounds nuw %struct.AVFilterContext, ptr %7, i32 0, i32 9
  %9 = load ptr, ptr %8, align 8, !tbaa !9
  store ptr %9, ptr %3, align 8, !tbaa !22
  call void @llvm.lifetime.start.p0(i64 4, ptr %4) #9
  store float 1.000000e+00, ptr %4, align 4, !tbaa !47
  call void @llvm.lifetime.start.p0(i64 8, ptr %5) #9
  call void @llvm.lifetime.start.p0(i64 4, ptr %6) #9
  %10 = load ptr, ptr %3, align 8, !tbaa !22
  %11 = getelementptr inbounds nuw %struct.MixContext, ptr %10, i32 0, i32 15
  store float 0.000000e+00, ptr %11, align 8, !tbaa !46
  %12 = load ptr, ptr %3, align 8, !tbaa !22
  %13 = getelementptr inbounds nuw %struct.MixContext, ptr %12, i32 0, i32 6
  %14 = load ptr, ptr %13, align 8, !tbaa !100
  store ptr %14, ptr %5, align 8, !tbaa !45
  store i32 0, ptr %6, align 4, !tbaa !24
  br label %15

15:                                               ; preds = %59, %1
  %16 = load i32, ptr %6, align 4, !tbaa !24
  %17 = load ptr, ptr %3, align 8, !tbaa !22
  %18 = getelementptr inbounds nuw %struct.MixContext, ptr %17, i32 0, i32 2
  %19 = load i32, ptr %18, align 8, !tbaa !25
  %20 = icmp slt i32 %16, %19
  br i1 %20, label %21, label %62

21:                                               ; preds = %15
  %22 = load ptr, ptr %5, align 8, !tbaa !45
  %23 = call nsz double @av_strtod(ptr noundef %22, ptr noundef %5)
  %24 = fptrunc nsz double %23 to float
  store float %24, ptr %4, align 4, !tbaa !47
  %25 = load float, ptr %4, align 4, !tbaa !47
  %26 = load ptr, ptr %3, align 8, !tbaa !22
  %27 = getelementptr inbounds nuw %struct.MixContext, ptr %26, i32 0, i32 14
  %28 = load ptr, ptr %27, align 8, !tbaa !39
  %29 = load i32, ptr %6, align 4, !tbaa !24
  %30 = sext i32 %29 to i64
  %31 = getelementptr inbounds float, ptr %28, i64 %30
  store float %25, ptr %31, align 4, !tbaa !47
  %32 = load float, ptr %4, align 4, !tbaa !47
  %33 = fcmp nsz oge float %32, 0.000000e+00
  br i1 %33, label %34, label %36

34:                                               ; preds = %21
  %35 = load float, ptr %4, align 4, !tbaa !47
  br label %39

36:                                               ; preds = %21
  %37 = load float, ptr %4, align 4, !tbaa !47
  %38 = fneg nsz float %37
  br label %39

39:                                               ; preds = %36, %34
  %40 = phi nsz float [ %35, %34 ], [ %38, %36 ]
  %41 = load ptr, ptr %3, align 8, !tbaa !22
  %42 = getelementptr inbounds nuw %struct.MixContext, ptr %41, i32 0, i32 15
  %43 = load float, ptr %42, align 8, !tbaa !46
  %44 = fadd nsz float %43, %40
  store float %44, ptr %42, align 8, !tbaa !46
  %45 = load ptr, ptr %5, align 8, !tbaa !45
  %46 = icmp ne ptr %45, null
  br i1 %46, label %47, label %55

47:                                               ; preds = %39
  %48 = load ptr, ptr %5, align 8, !tbaa !45
  %49 = load i8, ptr %48, align 1, !tbaa !71
  %50 = sext i8 %49 to i32
  %51 = icmp ne i32 %50, 0
  br i1 %51, label %52, label %55

52:                                               ; preds = %47
  %53 = load ptr, ptr %5, align 8, !tbaa !45
  %54 = getelementptr inbounds nuw i8, ptr %53, i32 1
  store ptr %54, ptr %5, align 8, !tbaa !45
  br label %58

55:                                               ; preds = %47, %39
  %56 = load i32, ptr %6, align 4, !tbaa !24
  %57 = add nsw i32 %56, 1
  store i32 %57, ptr %6, align 4, !tbaa !24
  br label %62

58:                                               ; preds = %52
  br label %59

59:                                               ; preds = %58
  %60 = load i32, ptr %6, align 4, !tbaa !24
  %61 = add nsw i32 %60, 1
  store i32 %61, ptr %6, align 4, !tbaa !24
  br label %15, !llvm.loop !101

62:                                               ; preds = %55, %15
  br label %63

63:                                               ; preds = %90, %62
  %64 = load i32, ptr %6, align 4, !tbaa !24
  %65 = load ptr, ptr %3, align 8, !tbaa !22
  %66 = getelementptr inbounds nuw %struct.MixContext, ptr %65, i32 0, i32 2
  %67 = load i32, ptr %66, align 8, !tbaa !25
  %68 = icmp slt i32 %64, %67
  br i1 %68, label %69, label %93

69:                                               ; preds = %63
  %70 = load float, ptr %4, align 4, !tbaa !47
  %71 = load ptr, ptr %3, align 8, !tbaa !22
  %72 = getelementptr inbounds nuw %struct.MixContext, ptr %71, i32 0, i32 14
  %73 = load ptr, ptr %72, align 8, !tbaa !39
  %74 = load i32, ptr %6, align 4, !tbaa !24
  %75 = sext i32 %74 to i64
  %76 = getelementptr inbounds float, ptr %73, i64 %75
  store float %70, ptr %76, align 4, !tbaa !47
  %77 = load float, ptr %4, align 4, !tbaa !47
  %78 = fcmp nsz oge float %77, 0.000000e+00
  br i1 %78, label %79, label %81

79:                                               ; preds = %69
  %80 = load float, ptr %4, align 4, !tbaa !47
  br label %84

81:                                               ; preds = %69
  %82 = load float, ptr %4, align 4, !tbaa !47
  %83 = fneg nsz float %82
  br label %84

84:                                               ; preds = %81, %79
  %85 = phi nsz float [ %80, %79 ], [ %83, %81 ]
  %86 = load ptr, ptr %3, align 8, !tbaa !22
  %87 = getelementptr inbounds nuw %struct.MixContext, ptr %86, i32 0, i32 15
  %88 = load float, ptr %87, align 8, !tbaa !46
  %89 = fadd nsz float %88, %85
  store float %89, ptr %87, align 8, !tbaa !46
  br label %90

90:                                               ; preds = %84
  %91 = load i32, ptr %6, align 4, !tbaa !24
  %92 = add nsw i32 %91, 1
  store i32 %92, ptr %6, align 4, !tbaa !24
  br label %63, !llvm.loop !102

93:                                               ; preds = %63
  call void @llvm.lifetime.end.p0(i64 4, ptr %6) #9
  call void @llvm.lifetime.end.p0(i64 8, ptr %5) #9
  call void @llvm.lifetime.end.p0(i64 4, ptr %4) #9
  call void @llvm.lifetime.end.p0(i64 8, ptr %3) #9
  ret void
}

; Function Attrs: cold nounwind optsize uwtable
define internal i32 @init(ptr noundef %0) #0 {
  %2 = alloca i32, align 4
  %3 = alloca ptr, align 8
  %4 = alloca ptr, align 8
  %5 = alloca i32, align 4
  %6 = alloca i32, align 4
  %7 = alloca %struct.AVFilterPad, align 8
  %8 = alloca i32, align 4
  store ptr %0, ptr %3, align 8, !tbaa !4
  call void @llvm.lifetime.start.p0(i64 8, ptr %4) #9
  %9 = load ptr, ptr %3, align 8, !tbaa !4
  %10 = getelementptr inbounds nuw %struct.AVFilterContext, ptr %9, i32 0, i32 9
  %11 = load ptr, ptr %10, align 8, !tbaa !9
  store ptr %11, ptr %4, align 8, !tbaa !22
  call void @llvm.lifetime.start.p0(i64 4, ptr %5) #9
  call void @llvm.lifetime.start.p0(i64 4, ptr %6) #9
  store i32 0, ptr %5, align 4, !tbaa !24
  br label %12

12:                                               ; preds = %37, %1
  %13 = load i32, ptr %5, align 4, !tbaa !24
  %14 = load ptr, ptr %4, align 8, !tbaa !22
  %15 = getelementptr inbounds nuw %struct.MixContext, ptr %14, i32 0, i32 2
  %16 = load i32, ptr %15, align 8, !tbaa !25
  %17 = icmp slt i32 %13, %16
  br i1 %17, label %18, label %40

18:                                               ; preds = %12
  call void @llvm.lifetime.start.p0(i64 48, ptr %7) #9
  call void @llvm.memset.p0.i64(ptr align 8 %7, i8 0, i64 48, i1 false)
  %19 = getelementptr inbounds nuw %struct.AVFilterPad, ptr %7, i32 0, i32 1
  store i32 1, ptr %19, align 8, !tbaa !33
  %20 = load i32, ptr %5, align 4, !tbaa !24
  %21 = call ptr (ptr, ...) @av_asprintf(ptr noundef @.str.23, i32 noundef %20)
  %22 = getelementptr inbounds nuw %struct.AVFilterPad, ptr %7, i32 0, i32 0
  store ptr %21, ptr %22, align 8, !tbaa !35
  %23 = getelementptr inbounds nuw %struct.AVFilterPad, ptr %7, i32 0, i32 0
  %24 = load ptr, ptr %23, align 8, !tbaa !35
  %25 = icmp ne ptr %24, null
  br i1 %25, label %27, label %26

26:                                               ; preds = %18
  store i32 -12, ptr %2, align 4
  store i32 1, ptr %8, align 4
  br label %34

27:                                               ; preds = %18
  %28 = load ptr, ptr %3, align 8, !tbaa !4
  %29 = call i32 @ff_append_inpad_free_name(ptr noundef %28, ptr noundef %7)
  store i32 %29, ptr %6, align 4, !tbaa !24
  %30 = icmp slt i32 %29, 0
  br i1 %30, label %31, label %33

31:                                               ; preds = %27
  %32 = load i32, ptr %6, align 4, !tbaa !24
  store i32 %32, ptr %2, align 4
  store i32 1, ptr %8, align 4
  br label %34

33:                                               ; preds = %27
  store i32 0, ptr %8, align 4
  br label %34

34:                                               ; preds = %33, %31, %26
  call void @llvm.lifetime.end.p0(i64 48, ptr %7) #9
  %35 = load i32, ptr %8, align 4
  switch i32 %35, label %64 [
    i32 0, label %36
  ]

36:                                               ; preds = %34
  br label %37

37:                                               ; preds = %36
  %38 = load i32, ptr %5, align 4, !tbaa !24
  %39 = add nsw i32 %38, 1
  store i32 %39, ptr %5, align 4, !tbaa !24
  br label %12, !llvm.loop !36

40:                                               ; preds = %12
  %41 = call ptr @avpriv_float_dsp_alloc(i32 noundef 0)
  %42 = load ptr, ptr %4, align 8, !tbaa !22
  %43 = getelementptr inbounds nuw %struct.MixContext, ptr %42, i32 0, i32 1
  store ptr %41, ptr %43, align 8, !tbaa !38
  %44 = load ptr, ptr %4, align 8, !tbaa !22
  %45 = getelementptr inbounds nuw %struct.MixContext, ptr %44, i32 0, i32 1
  %46 = load ptr, ptr %45, align 8, !tbaa !38
  %47 = icmp ne ptr %46, null
  br i1 %47, label %49, label %48

48:                                               ; preds = %40
  store i32 -12, ptr %2, align 4
  store i32 1, ptr %8, align 4
  br label %64

49:                                               ; preds = %40
  %50 = load ptr, ptr %4, align 8, !tbaa !22
  %51 = getelementptr inbounds nuw %struct.MixContext, ptr %50, i32 0, i32 2
  %52 = load i32, ptr %51, align 8, !tbaa !25
  %53 = sext i32 %52 to i64
  %54 = call noalias ptr @av_calloc(i64 noundef %53, i64 noundef 4)
  %55 = load ptr, ptr %4, align 8, !tbaa !22
  %56 = getelementptr inbounds nuw %struct.MixContext, ptr %55, i32 0, i32 14
  store ptr %54, ptr %56, align 8, !tbaa !39
  %57 = load ptr, ptr %4, align 8, !tbaa !22
  %58 = getelementptr inbounds nuw %struct.MixContext, ptr %57, i32 0, i32 14
  %59 = load ptr, ptr %58, align 8, !tbaa !39
  %60 = icmp ne ptr %59, null
  br i1 %60, label %62, label %61

61:                                               ; preds = %49
  store i32 -12, ptr %2, align 4
  store i32 1, ptr %8, align 4
  br label %64

62:                                               ; preds = %49
  %63 = load ptr, ptr %3, align 8, !tbaa !4
  call void @parse_weights(ptr noundef %63)
  store i32 0, ptr %2, align 4
  store i32 1, ptr %8, align 4
  br label %64

64:                                               ; preds = %62, %61, %48, %34
  call void @llvm.lifetime.end.p0(i64 4, ptr %6) #9
  call void @llvm.lifetime.end.p0(i64 4, ptr %5) #9
  call void @llvm.lifetime.end.p0(i64 8, ptr %4) #9
  %65 = load i32, ptr %2, align 4
  ret i32 %65
}