; Function Attrs: cold nounwind optsize uwtable
define internal range(i32 -2147483648, 1) i32 @init(ptr noundef %0) #0 {
  %2 = alloca ptr, align 8
  %3 = alloca %struct.AVFilterPad, align 8
  %4 = getelementptr inbounds nuw i8, ptr %0, i64 72
  %5 = load ptr, ptr %4, align 8, !tbaa !4
  %6 = getelementptr inbounds nuw i8, ptr %5, i64 16
  %7 = load i32, ptr %6, align 8, !tbaa !20
  %8 = icmp sgt i32 %7, 0
  br i1 %8, label %.lr.ph, label %._crit_edge

.lr.ph:                                           ; preds = %1
  %9 = getelementptr inbounds nuw i8, ptr %3, i64 8
  br label %14

10:                                               ; preds = %16
  %11 = add nuw nsw i32 %.01527, 1
  %12 = load i32, ptr %6, align 8, !tbaa !20
  %13 = icmp slt i32 %11, %12
  br i1 %13, label %14, label %._crit_edge, !llvm.loop !28

14:                                               ; preds = %.lr.ph, %10
  %.01527 = phi i32 [ 0, %.lr.ph ], [ %11, %10 ]
  call void @llvm.lifetime.start.p0(i64 48, ptr nonnull %3) #9
  call void @llvm.memset.p0.i64(ptr noundef nonnull align 8 dereferenceable(48) %3, i8 0, i64 48, i1 false)
  store i32 1, ptr %9, align 8, !tbaa !30
  %15 = call ptr (ptr, ...) @av_asprintf(ptr noundef nonnull @.str.23, i32 noundef %.01527) #9
  store ptr %15, ptr %3, align 8, !tbaa !32
  %.not18 = icmp eq ptr %15, null
  br i1 %.not18, label %.thread, label %16

.thread:                                          ; preds = %14
  call void @llvm.lifetime.end.p0(i64 48, ptr nonnull %3) #9
  br label %.loopexit

16:                                               ; preds = %14
  %17 = call i32 @ff_append_inpad_free_name(ptr noundef %0, ptr noundef nonnull %3) #9
  %18 = icmp sgt i32 %17, -1
  call void @llvm.lifetime.end.p0(i64 48, ptr nonnull %3) #9
  br i1 %18, label %10, label %.loopexit

._crit_edge:                                      ; preds = %10, %1
  %19 = call ptr @avpriv_float_dsp_alloc(i32 noundef 0) #9
  %20 = getelementptr inbounds nuw i8, ptr %5, i64 8
  store ptr %19, ptr %20, align 8, !tbaa !33
  %.not = icmp eq ptr %19, null
  br i1 %.not, label %.loopexit, label %21

21:                                               ; preds = %._crit_edge
  %22 = load i32, ptr %6, align 8, !tbaa !20
  %23 = sext i32 %22 to i64
  %24 = call noalias ptr @av_calloc(i64 noundef %23, i64 noundef 4) #9
  %25 = getelementptr inbounds nuw i8, ptr %5, i64 80
  store ptr %24, ptr %25, align 8, !tbaa !34
  %.not17 = icmp eq ptr %24, null
  br i1 %.not17, label %.loopexit, label %26

26:                                               ; preds = %21
  %.val = load ptr, ptr %4, align 8, !tbaa !4
  call void @llvm.lifetime.start.p0(i64 8, ptr nonnull %2) #9
  %27 = getelementptr inbounds nuw i8, ptr %.val, i64 88
  store float 0.000000e+00, ptr %27, align 8, !tbaa !35
  %28 = getelementptr inbounds nuw i8, ptr %.val, i64 32
  %29 = load ptr, ptr %28, align 8, !tbaa !36
  store ptr %29, ptr %2, align 8, !tbaa !37
  %30 = getelementptr inbounds nuw i8, ptr %.val, i64 16
  %31 = load i32, ptr %30, align 8, !tbaa !20
  %32 = icmp sgt i32 %31, 0
  br i1 %32, label %.lr.ph.i, label %.loopexit.i

.lr.ph.i:                                         ; preds = %26
  %33 = getelementptr inbounds nuw i8, ptr %.val, i64 80
  br label %34

34:                                               ; preds = %48, %.lr.ph.i
  %35 = phi ptr [ %29, %.lr.ph.i ], [ %49, %48 ]
  %indvars.iv.i = phi i64 [ 0, %.lr.ph.i ], [ %indvars.iv.next.i, %48 ]
  %36 = call nsz double @av_strtod(ptr noundef %35, ptr noundef nonnull %2) #9
  %37 = fptrunc nsz double %36 to float
  %38 = load ptr, ptr %33, align 8, !tbaa !34
  %39 = getelementptr inbounds nuw float, ptr %38, i64 %indvars.iv.i
  store float %37, ptr %39, align 4, !tbaa !38
  %40 = fcmp nsz oge float %37, 0.000000e+00
  %41 = fneg nsz float %37
  %42 = select nsz i1 %40, float %37, float %41
  %43 = load float, ptr %27, align 8, !tbaa !35
  %44 = fadd nsz float %43, %42
  store float %44, ptr %27, align 8, !tbaa !35
  %45 = load ptr, ptr %2, align 8, !tbaa !37
  %.not.i = icmp eq ptr %45, null
  br i1 %.not.i, label %53, label %46

46:                                               ; preds = %34
  %47 = load i8, ptr %45, align 1, !tbaa !39
  %.not26.i = icmp eq i8 %47, 0
  br i1 %.not26.i, label %53, label %48

48:                                               ; preds = %46
  %49 = getelementptr inbounds nuw i8, ptr %45, i64 1
  store ptr %49, ptr %2, align 8, !tbaa !37
  %indvars.iv.next.i = add nuw nsw i64 %indvars.iv.i, 1
  %50 = load i32, ptr %30, align 8, !tbaa !20
  %51 = sext i32 %50 to i64
  %52 = icmp slt i64 %indvars.iv.next.i, %51
  br i1 %52, label %34, label %.loopexit.loopexit.i, !llvm.loop !40

53:                                               ; preds = %46, %34
  %54 = trunc nuw nsw i64 %indvars.iv.i to i32
  %55 = add nuw nsw i32 %54, 1
  %.pre.i = load i32, ptr %30, align 8, !tbaa !20
  br label %.loopexit.i

.loopexit.loopexit.i:                             ; preds = %48
  %56 = trunc nuw nsw i64 %indvars.iv.next.i to i32
  br label %.loopexit.i

.loopexit.i:                                      ; preds = %.loopexit.loopexit.i, %53, %26
  %57 = phi i32 [ %.pre.i, %53 ], [ %31, %26 ], [ %50, %.loopexit.loopexit.i ]
  %.124.i = phi nsz float [ %37, %53 ], [ 1.000000e+00, %26 ], [ %37, %.loopexit.loopexit.i ]
  %.1.i = phi i32 [ %55, %53 ], [ 0, %26 ], [ %56, %.loopexit.loopexit.i ]
  %58 = icmp slt i32 %.1.i, %57
  br i1 %58, label %.lr.ph8.i, label %parse_weights.exit

.lr.ph8.i:                                        ; preds = %.loopexit.i
  %59 = getelementptr inbounds nuw i8, ptr %.val, i64 80
  %60 = load ptr, ptr %59, align 8, !tbaa !34
  %61 = fcmp nsz oge float %.124.i, 0.000000e+00
  %62 = fneg nsz float %.124.i
  %63 = select nsz i1 %61, float %.124.i, float %62
  %64 = zext nneg i32 %.1.i to i64
  %wide.trip.count.i = zext i32 %57 to i64
  br label %65

65:                                               ; preds = %65, %.lr.ph8.i
  %indvars.iv13.i = phi i64 [ %64, %.lr.ph8.i ], [ %indvars.iv.next14.i, %65 ]
  %66 = getelementptr inbounds nuw float, ptr %60, i64 %indvars.iv13.i
  store float %.124.i, ptr %66, align 4, !tbaa !38
  %67 = load float, ptr %27, align 8, !tbaa !35
  %68 = fadd nsz float %63, %67
  store float %68, ptr %27, align 8, !tbaa !35
  %indvars.iv.next14.i = add nuw nsw i64 %indvars.iv13.i, 1
  %exitcond.not.i = icmp eq i64 %indvars.iv.next14.i, %wide.trip.count.i
  br i1 %exitcond.not.i, label %parse_weights.exit, label %65, !llvm.loop !41

parse_weights.exit:                               ; preds = %65, %.loopexit.i
  call void @llvm.lifetime.end.p0(i64 8, ptr nonnull %2) #9
  br label %.loopexit

.loopexit:                                        ; preds = %16, %.thread, %21, %._crit_edge, %parse_weights.exit
  %.2 = phi i32 [ 0, %parse_weights.exit ], [ -12, %._crit_edge ], [ -12, %21 ], [ -12, %.thread ], [ %17, %16 ]
  ret i32 %.2
}